; Function Attrs: mustprogress uwtable
define hidden void @_ZN2cv11xfeatures2d33HarrisLaplaceFeatureDetector_ImplC2Eiffii(ptr noundef nonnull align 8 dereferenceable(32) initializes((0, 28)) %0, ptr noundef %1, i32 noundef %2, float noundef %3, float noundef %4, i32 noundef %5, i32 noundef %6) unnamed_addr #0 align 2 personality ptr @__gxx_personality_v0 {
  %8 = alloca %"class.std::__cxx11::basic_string", align 8
  %9 = alloca %"class.std::allocator", align 1
  %10 = getelementptr inbounds nuw i8, ptr %1, i64 8
  %11 = getelementptr inbounds nuw i8, ptr %1, i64 16
  %12 = load ptr, ptr %11, align 8
  store ptr %12, ptr %0, align 8, !tbaa !14
  %13 = getelementptr inbounds nuw i8, ptr %1, i64 24
  %14 = load ptr, ptr %13, align 8
  %15 = getelementptr i8, ptr %12, i64 -80
  %16 = load i64, ptr %15, align 8
  %17 = getelementptr inbounds i8, ptr %0, i64 %16
  store ptr %14, ptr %17, align 8, !tbaa !14
  %18 = load ptr, ptr %10, align 8
  store ptr %18, ptr %0, align 8, !tbaa !14
  %19 = getelementptr inbounds nuw i8, ptr %1, i64 32
  %20 = load ptr, ptr %19, align 8
  %21 = getelementptr i8, ptr %18, i64 -80
  %22 = load i64, ptr %21, align 8
  %23 = getelementptr inbounds i8, ptr %0, i64 %22
  store ptr %20, ptr %23, align 8, !tbaa !14
  %24 = load ptr, ptr %1, align 8
  store ptr %24, ptr %0, align 8, !tbaa !14
  %25 = getelementptr inbounds nuw i8, ptr %1, i64 40
  %26 = load ptr, ptr %25, align 8
  %27 = getelementptr i8, ptr %24, i64 -80
  %28 = load i64, ptr %27, align 8
  %29 = getelementptr inbounds i8, ptr %0, i64 %28
  store ptr %26, ptr %29, align 8, !tbaa !14
  %30 = getelementptr inbounds nuw i8, ptr %0, i64 8
  store i32 %2, ptr %30, align 8, !tbaa !34
  %31 = getelementptr inbounds nuw i8, ptr %0, i64 12
  store float %3, ptr %31, align 4, !tbaa !39
  %32 = getelementptr inbounds nuw i8, ptr %0, i64 16
  store float %4, ptr %32, align 8, !tbaa !40
  %33 = getelementptr inbounds nuw i8, ptr %0, i64 20
  store i32 %5, ptr %33, align 4, !tbaa !41
  %34 = getelementptr inbounds nuw i8, ptr %0, i64 24
  store i32 %6, ptr %34, align 8, !tbaa !42
  switch i32 %6, label %35 [
    i32 2, label %48
    i32 4, label %48
  ]

35:                                               ; preds = %7
  call void @llvm.lifetime.start.p0(i64 32, ptr nonnull %8) #26
  call void @llvm.lifetime.start.p0(i64 1, ptr nonnull %9) #26
  invoke void @_ZNSt7__cxx1112basic_stringIcSt11char_traitsIcESaIcEEC2EPKcRKS3_(ptr noundef nonnull align 8 dereferenceable(32) %8, ptr noundef nonnull @.str.1, ptr noundef nonnull align 1 dereferenceable(1) %9)
          to label %36 unwind label %38

36:                                               ; preds = %35
  invoke void @_ZN2cv5errorEiRKNSt7__cxx1112basic_stringIcSt11char_traitsIcESaIcEEEPKcS9_i(i32 noundef -215, ptr noundef nonnull align 8 dereferenceable(32) %8, ptr noundef nonnull @__func__._ZN2cv11xfeatures2d33HarrisLaplaceFeatureDetector_ImplC2Eiffii, ptr noundef nonnull @.str.2, i32 noundef 384) #27
          to label %37 unwind label %40

37:                                               ; preds = %36
  unreachable

38:                                               ; preds = %35
  %39 = landingpad { ptr, i32 }
          cleanup
  br label %_ZNSt7__cxx1112basic_stringIcSt11char_traitsIcESaIcEED2Ev.exit

40:                                               ; preds = %36
  %41 = landingpad { ptr, i32 }
          cleanup
  %42 = load ptr, ptr %8, align 8, !tbaa !32
  %43 = getelementptr inbounds nuw i8, ptr %8, i64 16
  %44 = icmp eq ptr %42, %43
  br i1 %44, label %_ZNKSt7__cxx1112basic_stringIcSt11char_traitsIcESaIcEE11_M_is_localEv.exit.thread.i.i, label %_ZNKSt7__cxx1112basic_stringIcSt11char_traitsIcESaIcEE11_M_is_localEv.exit.i.i

_ZNKSt7__cxx1112basic_stringIcSt11char_traitsIcESaIcEE11_M_is_localEv.exit.thread.i.i: ; preds = %40
  %45 = getelementptr inbounds nuw i8, ptr %8, i64 8
  %46 = load i64, ptr %45, align 8, !tbaa !26
  %47 = icmp ult i64 %46, 16
  call void @llvm.assume(i1 %47)
  br label %_ZNSt7__cxx1112basic_stringIcSt11char_traitsIcESaIcEED2Ev.exit

_ZNKSt7__cxx1112basic_stringIcSt11char_traitsIcESaIcEE11_M_is_localEv.exit.i.i: ; preds = %40
  call void @_ZdlPv(ptr noundef %42) #25
  br label %_ZNSt7__cxx1112basic_stringIcSt11char_traitsIcESaIcEED2Ev.exit

_ZNSt7__cxx1112basic_stringIcSt11char_traitsIcESaIcEED2Ev.exit: ; preds = %_ZNKSt7__cxx1112basic_stringIcSt11char_traitsIcESaIcEE11_M_is_localEv.exit.i.i, %_ZNKSt7__cxx1112basic_stringIcSt11char_traitsIcESaIcEE11_M_is_localEv.exit.thread.i.i, %38
  %.pn = phi { ptr, i32 } [ %39, %38 ], [ %41, %_ZNKSt7__cxx1112basic_stringIcSt11char_traitsIcESaIcEE11_M_is_localEv.exit.thread.i.i ], [ %41, %_ZNKSt7__cxx1112basic_stringIcSt11char_traitsIcESaIcEE11_M_is_localEv.exit.i.i ]
  call void @llvm.lifetime.end.p0(i64 1, ptr nonnull %9) #26
  call void @llvm.lifetime.end.p0(i64 32, ptr nonnull %8) #26
  call void @_ZN2cv9Feature2DD2Ev(ptr noundef nonnull align 8 dereferenceable(8) %0, ptr noundef nonnull %11) #26
  resume { ptr, i32 } %.pn

48:                                               ; preds = %7, %7
  ret void
}